target datalayout = "e-m:e-p270:32:32-p271:32:32-p272:64:64-i64:64-i128:128-f80:128-n8:16:32:64-S128"
target triple = "x86_64-pc-linux-gnu"

; Function Attrs: mustprogress nounwind uwtable
define dso_local noundef i32 @_ZN4llvm5APInt10tcMultiplyEPmPKmS3_j(ptr noundef %0, ptr noundef %1, ptr noundef %2, i32 noundef %3) #0 align 2 {
  %5 = alloca ptr, align 8
  %6 = alloca ptr, align 8
  %7 = alloca ptr, align 8
  %8 = alloca i32, align 4
  %9 = alloca i32, align 4
  %10 = alloca i32, align 4
  store ptr %0, ptr %5, align 8
  store ptr %1, ptr %6, align 8
  store ptr %2, ptr %7, align 8
  store i32 %3, ptr %8, align 4
  store i32 0, ptr %9, align 4
  store i32 0, ptr %10, align 4
  br label %11

11:                                               ; preds = %35, %4
  %12 = load i32, ptr %10, align 4
  %13 = load i32, ptr %8, align 4
  %14 = icmp ult i32 %12, %13
  br i1 %14, label %15, label %38

15:                                               ; preds = %11
  %16 = load ptr, ptr %5, align 8
  %17 = load i32, ptr %10, align 4
  %18 = zext i32 %17 to i64
  %19 = getelementptr inbounds i64, ptr %16, i64 %18
  %20 = load ptr, ptr %6, align 8
  %21 = load ptr, ptr %7, align 8
  %22 = load i32, ptr %10, align 4
  %23 = zext i32 %22 to i64
  %24 = getelementptr inbounds i64, ptr %21, i64 %23
  %25 = load i64, ptr %24, align 8
  %26 = load i32, ptr %8, align 4
  %27 = load i32, ptr %8, align 4
  %28 = load i32, ptr %10, align 4
  %29 = sub i32 %27, %28
  %30 = load i32, ptr %10, align 4
  %31 = icmp ne i32 %30, 0
  %32 = call noundef i32 @_ZN4llvm5APInt14tcMultiplyPartEPmPKmmmjjb(ptr noundef %19, ptr noundef %20, i64 noundef %25, i64 noundef 0, i32 noundef %26, i32 noundef %29, i1 noundef zeroext %31)
  %33 = load i32, ptr %9, align 4
  %34 = or i32 %33, %32
  store i32 %34, ptr %9, align 4
  br label %35

35:                                               ; preds = %15
  %36 = load i32, ptr %10, align 4
  %37 = add i32 %36, 1
  store i32 %37, ptr %10, align 4
  br label %11, !llvm.loop !12

38:                                               ; preds = %11
  %39 = load i32, ptr %9, align 4
  ret i32 %39
}