; Function Attrs: mustprogress nofree norecurse nosync nounwind memory(argmem: readwrite) uwtable
define dso_local noundef range(i32 0, 2) i32 @_ZN4llvm5APInt10tcMultiplyEPmPKmS3_j(ptr noundef captures(none) %0, ptr noundef readonly captures(none) %1, ptr noundef readonly captures(none) %2, i32 noundef %3) local_unnamed_addr #5 align 2 {
  %.not = icmp eq i32 %3, 0
  br i1 %.not, label %._crit_edge, label %.lr.ph.preheader

.lr.ph.preheader:                                 ; preds = %4
  %5 = zext i32 %3 to i64
  br label %.lr.ph

.lr.ph:                                           ; preds = %.lr.ph.preheader, %.lr.ph
  %indvars.iv = phi i64 [ 0, %.lr.ph.preheader ], [ %indvars.iv.next, %.lr.ph ]
  %.01315 = phi i32 [ 0, %.lr.ph.preheader ], [ %13, %.lr.ph ]
  %6 = getelementptr inbounds nuw i64, ptr %0, i64 %indvars.iv
  %7 = getelementptr inbounds nuw i64, ptr %2, i64 %indvars.iv
  %8 = load i64, ptr %7, align 8
  %9 = icmp ne i64 %indvars.iv, 0
  %10 = trunc i64 %indvars.iv to i32
  %11 = sub i32 %3, %10
  %12 = tail call noundef i32 @_ZN4llvm5APInt14tcMultiplyPartEPmPKmmmjjb(ptr noundef %6, ptr noundef %1, i64 noundef %8, i64 noundef 0, i32 noundef %3, i32 noundef %11, i1 noundef zeroext %9)
  %13 = or i32 %12, %.01315
  %indvars.iv.next = add nuw nsw i64 %indvars.iv, 1
  %exitcond.not = icmp eq i64 %indvars.iv.next, %5
  br i1 %exitcond.not, label %._crit_edge, label %.lr.ph, !llvm.loop !14

._crit_edge:                                      ; preds = %.lr.ph, %4
  %.013.lcssa = phi i32 [ 0, %4 ], [ %13, %.lr.ph ]
  ret i32 %.013.lcssa
}